target datalayout = "e-m:e-p270:32:32-p271:32:32-p272:64:64-i64:64-i128:128-f80:128-n8:16:32:64-S128"
target triple = "x86_64-pc-linux-gnu"

%struct.RString = type { %struct.RBasic, i64, %union.anon.12 }
%struct.RBasic = type { i64, i64 }
%union.anon.12 = type { %struct.anon.13 }
%struct.anon.13 = type { ptr, %union.anon.14 }
%union.anon.14 = type { i64 }
%struct.RFile = type { %struct.RBasic, ptr }
%struct.rb_io = type { i64, ptr, i32, i32, i32, i32, i64, ptr, %struct.rb_io_internal_buffer, %struct.rb_io_internal_buffer, i64, %struct.rb_io_encoding, ptr, %struct.rb_io_internal_buffer, ptr, i64, i32, i32, i64, i64, i64 }
%struct.rb_io_encoding = type { ptr, ptr, i32, i64 }
%struct.rb_io_internal_buffer = type <{ ptr, i32, i32, i32 }>
%union.__CONST_SOCKADDR_ARG = type { ptr }
%struct.anon.15 = type { [1 x i8] }

@.str.42 = private unnamed_addr constant [8 x i8] c"bind(2)\00", align 1

; Function Attrs: inlinehint nounwind sspstrong willreturn memory(read) uwtable
define internal i64 @RB_FL_TEST_RAW(i64 noundef %0, i64 noundef %1) #6 {
  %3 = alloca i64, align 8
  %4 = alloca i64, align 8
  store i64 %0, ptr %3, align 8, !tbaa !11
  store i64 %1, ptr %4, align 8, !tbaa !11
  %5 = load i64, ptr %3, align 8, !tbaa !11
  %6 = inttoptr i64 %5 to ptr
  %7 = getelementptr inbounds nuw %struct.RBasic, ptr %6, i32 0, i32 0
  %8 = load i64, ptr %7, align 8, !tbaa !99
  %9 = load i64, ptr %4, align 8, !tbaa !11
  %10 = and i64 %8, %9
  ret i64 %10
}

; Function Attrs: inlinehint nounwind sspstrong willreturn memory(read) uwtable
define internal zeroext i1 @RB_FL_ANY_RAW(i64 noundef %0, i64 noundef %1) #6 {
  %3 = alloca i64, align 8
  %4 = alloca i64, align 8
  store i64 %0, ptr %3, align 8, !tbaa !11
  store i64 %1, ptr %4, align 8, !tbaa !11
  %5 = load i64, ptr %3, align 8, !tbaa !11
  %6 = load i64, ptr %4, align 8, !tbaa !11
  %7 = call i64 @RB_FL_TEST_RAW(i64 noundef %5, i64 noundef %6) #25
  %8 = icmp ne i64 %7, 0
  ret i1 %8
}

; Function Attrs: inlinehint nounwind sspstrong uwtable
define internal i32 @rb_long2int_inline(i64 noundef %0) #8 {
  %2 = alloca i64, align 8
  %3 = alloca i32, align 4
  store i64 %0, ptr %2, align 8, !tbaa !11
  call void @llvm.lifetime.start.p0(i64 4, ptr %3) #24
  %4 = load i64, ptr %2, align 8, !tbaa !11
  %5 = trunc i64 %4 to i32
  store i32 %5, ptr %3, align 4, !tbaa !13
  %6 = load i32, ptr %3, align 4, !tbaa !13
  %7 = sext i32 %6 to i64
  %8 = load i64, ptr %2, align 8, !tbaa !11
  %9 = icmp ne i64 %7, %8
  br i1 %9, label %10, label %12

10:                                               ; preds = %1
  %11 = load i64, ptr %2, align 8, !tbaa !11
  call void @rb_out_of_int(i64 noundef %11) #30
  unreachable

12:                                               ; preds = %1
  %13 = load i32, ptr %3, align 4, !tbaa !13
  call void @llvm.lifetime.end.p0(i64 4, ptr %3) #24
  ret i32 %13
}

; Function Attrs: inlinehint nounwind sspstrong willreturn memory(read) uwtable
define internal i64 @RSTRING_LEN(i64 noundef %0) #6 {
  %2 = alloca i64, align 8
  store i64 %0, ptr %2, align 8, !tbaa !11
  %3 = load i64, ptr %2, align 8, !tbaa !11
  %4 = inttoptr i64 %3 to ptr
  %5 = getelementptr inbounds nuw %struct.RString, ptr %4, i32 0, i32 1
  %6 = load i64, ptr %5, align 8, !tbaa !18
  ret i64 %6
}

; Function Attrs: inlinehint nounwind sspstrong willreturn memory(read, argmem: readwrite) uwtable
define internal void @rbimpl_rstring_getmem(ptr dead_on_unwind noalias writable sret(%struct.RString) align 8 %0, i64 noundef %1) #14 {
  %3 = alloca i64, align 8
  store i64 %1, ptr %3, align 8, !tbaa !11
  %4 = load i64, ptr %3, align 8, !tbaa !11
  %5 = call zeroext i1 @RB_FL_ANY_RAW(i64 noundef %4, i64 noundef 8192) #25
  br i1 %5, label %6, label %9

6:                                                ; preds = %2
  %7 = load i64, ptr %3, align 8, !tbaa !11
  %8 = inttoptr i64 %7 to ptr
  call void @llvm.memcpy.p0.p0.i64(ptr align 8 %0, ptr align 8 %8, i64 40, i1 false), !tbaa.struct !100
  br label %20

9:                                                ; preds = %2
  %10 = load i64, ptr %3, align 8, !tbaa !11
  %11 = call i64 @RSTRING_LEN(i64 noundef %10) #25
  %12 = getelementptr inbounds nuw %struct.RString, ptr %0, i32 0, i32 1
  store i64 %11, ptr %12, align 8, !tbaa !18
  %13 = load i64, ptr %3, align 8, !tbaa !11
  %14 = inttoptr i64 %13 to ptr
  %15 = getelementptr inbounds nuw %struct.RString, ptr %14, i32 0, i32 2
  %16 = getelementptr inbounds nuw %struct.anon.15, ptr %15, i32 0, i32 0
  %17 = getelementptr inbounds [1 x i8], ptr %16, i64 0, i64 0
  %18 = getelementptr inbounds nuw %struct.RString, ptr %0, i32 0, i32 2
  %19 = getelementptr inbounds nuw %struct.anon.13, ptr %18, i32 0, i32 0
  store ptr %17, ptr %19, align 8, !tbaa !17
  br label %20

20:                                               ; preds = %9, %6
  ret void
}

; Function Attrs: inlinehint nounwind sspstrong uwtable
define internal i32 @RSTRING_LENINT(i64 noundef %0) #8 {
  %2 = alloca i64, align 8
  store i64 %0, ptr %2, align 8, !tbaa !11
  %3 = load i64, ptr %2, align 8, !tbaa !11
  %4 = call i64 @RSTRING_LEN(i64 noundef %3) #25
  %5 = call i32 @rb_long2int_inline(i64 noundef %4)
  ret i32 %5
}

; Function Attrs: inlinehint nounwind sspstrong uwtable
define internal ptr @RSTRING_PTR(i64 noundef %0) #8 {
  %2 = alloca i64, align 8
  %3 = alloca ptr, align 8
  %4 = alloca %struct.RString, align 8
  store i64 %0, ptr %2, align 8, !tbaa !11
  call void @llvm.lifetime.start.p0(i64 8, ptr %3) #24
  %5 = load i64, ptr %2, align 8, !tbaa !11
  call void @rbimpl_rstring_getmem(ptr dead_on_unwind writable sret(%struct.RString) align 8 %4, i64 noundef %5) #27
  %6 = getelementptr inbounds nuw %struct.RString, ptr %4, i32 0, i32 2
  %7 = getelementptr inbounds nuw %struct.anon.13, ptr %6, i32 0, i32 0
  %8 = load ptr, ptr %7, align 8, !tbaa !17
  store ptr %8, ptr %3, align 8, !tbaa !6
  %9 = load ptr, ptr %3, align 8, !tbaa !6
  call void @llvm.lifetime.end.p0(i64 8, ptr %3) #24
  ret ptr %9
}

; Function Attrs: nounwind sspstrong uwtable
define internal i64 @sock_bind(i64 noundef %0, i64 noundef %1) #0 {
  %3 = alloca i64, align 8
  %4 = alloca i64, align 8
  %5 = alloca i64, align 8
  %6 = alloca ptr, align 8
  %7 = alloca %union.__CONST_SOCKADDR_ARG, align 8
  store i64 %0, ptr %3, align 8, !tbaa !11
  store i64 %1, ptr %4, align 8, !tbaa !11
  call void @llvm.lifetime.start.p0(i64 8, ptr %5) #24
  call void @llvm.lifetime.start.p0(i64 8, ptr %6) #24
  %8 = call i64 @rsock_sockaddr_string_value_with_addrinfo(ptr noundef %4, ptr noundef %5)
  %9 = load i64, ptr %3, align 8, !tbaa !11
  %10 = call i64 @rb_io_taint_check(i64 noundef %9)
  %11 = inttoptr i64 %10 to ptr
  %12 = getelementptr inbounds nuw %struct.RFile, ptr %11, i32 0, i32 1
  %13 = load ptr, ptr %12, align 8, !tbaa !35
  store ptr %13, ptr %6, align 8, !tbaa !38
  call void @rb_io_check_closed(ptr noundef %13)
  %14 = load ptr, ptr %6, align 8, !tbaa !38
  %15 = getelementptr inbounds nuw %struct.rb_io, ptr %14, i32 0, i32 2
  %16 = load i32, ptr %15, align 8, !tbaa !39
  %17 = load i64, ptr %4, align 8, !tbaa !11
  %18 = call ptr @RSTRING_PTR(i64 noundef %17)
  store ptr %18, ptr %7, align 8, !tbaa !17
  %19 = load i64, ptr %4, align 8, !tbaa !11
  %20 = call i32 @RSTRING_LENINT(i64 noundef %19)
  %21 = getelementptr inbounds nuw %union.__CONST_SOCKADDR_ARG, ptr %7, i32 0, i32 0
  %22 = load ptr, ptr %21, align 8
  %23 = call i32 @bind(i32 noundef %16, ptr %22, i32 noundef %20) #24
  %24 = icmp slt i32 %23, 0
  br i1 %24, label %25, label %28

25:                                               ; preds = %2
  %26 = load i64, ptr %4, align 8, !tbaa !11
  %27 = load i64, ptr %5, align 8, !tbaa !11
  call void @rsock_sys_fail_raddrinfo_or_sockaddr(ptr noundef @.str.42, i64 noundef %26, i64 noundef %27) #23
  unreachable

28:                                               ; preds = %2
  call void @llvm.lifetime.end.p0(i64 8, ptr %6) #24
  call void @llvm.lifetime.end.p0(i64 8, ptr %5) #24
  ret i64 1
}