; Function Attrs: nounwind sspstrong uwtable
define internal noundef i64 @sock_bind(i64 noundef %0, i64 noundef %1) #0 {
  %3 = alloca i64, align 8
  %4 = alloca i64, align 8
  store i64 %1, ptr %3, align 8, !tbaa !10
  call void @llvm.lifetime.start.p0(i64 8, ptr nonnull %4) #16
  %5 = call i64 @rsock_sockaddr_string_value_with_addrinfo(ptr noundef nonnull %3, ptr noundef nonnull %4) #16
  %6 = call i64 @rb_io_taint_check(i64 noundef %0) #16
  %7 = inttoptr i64 %6 to ptr
  %8 = getelementptr inbounds nuw i8, ptr %7, i64 16
  %9 = load ptr, ptr %8, align 8, !tbaa !24
  call void @rb_io_check_closed(ptr noundef %9) #16
  %10 = getelementptr inbounds nuw i8, ptr %9, i64 16
  %11 = load i32, ptr %10, align 8, !tbaa !27
  %12 = load i64, ptr %3, align 8, !tbaa !10
  %13 = inttoptr i64 %12 to ptr
  %14 = load i64, ptr %13, align 8, !tbaa !12, !noalias !46
  %15 = and i64 %14, 8192
  %.not.i.i = icmp eq i64 %15, 0
  %16 = getelementptr inbounds nuw i8, ptr %13, i64 24
  br i1 %.not.i.i, label %RSTRING_PTR.exit, label %17

17:                                               ; preds = %2
  %.sroa.2.0.copyload.i = load ptr, ptr %16, align 8
  br label %RSTRING_PTR.exit

RSTRING_PTR.exit:                                 ; preds = %2, %17
  %.sroa.2.0.i = phi ptr [ %.sroa.2.0.copyload.i, %17 ], [ %16, %2 ]
  %18 = getelementptr inbounds nuw i8, ptr %13, i64 16
  %19 = load i64, ptr %18, align 8, !tbaa !17
  %20 = add i64 %19, 2147483648
  %.not.i.i1 = icmp ult i64 %20, 4294967296
  br i1 %.not.i.i1, label %RSTRING_LENINT.exit, label %21

21:                                               ; preds = %RSTRING_PTR.exit
  call void @rb_out_of_int(i64 noundef %19) #20
  unreachable

RSTRING_LENINT.exit:                              ; preds = %RSTRING_PTR.exit
  %22 = trunc i64 %19 to i32
  %23 = call i32 @bind(i32 noundef %11, ptr %.sroa.2.0.i, i32 noundef %22) #16
  %24 = icmp slt i32 %23, 0
  br i1 %24, label %25, label %28

25:                                               ; preds = %RSTRING_LENINT.exit
  %26 = load i64, ptr %3, align 8, !tbaa !10
  %27 = load i64, ptr %4, align 8, !tbaa !10
  call void @rsock_sys_fail_raddrinfo_or_sockaddr(ptr noundef nonnull @.str.42, i64 noundef %26, i64 noundef %27) #17
  unreachable

28:                                               ; preds = %RSTRING_LENINT.exit
  call void @llvm.lifetime.end.p0(i64 8, ptr nonnull %4) #16
  ret i64 1
}